target datalayout = "e-m:e-p270:32:32-p271:32:32-p272:64:64-i64:64-i128:128-f80:128-n8:16:32:64-S128"
target triple = "x86_64-pc-linux-gnu"

@.str.426 = private unnamed_addr constant [9 x i8] c"Reserved\00", align 1
@.str.596 = private unnamed_addr constant [7 x i8] c"0x%02x\00", align 1
@.str.597 = private unnamed_addr constant [12 x i8] c"%s (0x%02x)\00", align 1
@.str.598 = private unnamed_addr constant [25 x i8] c"System Supplier Specific\00", align 1
@.str.599 = private unnamed_addr constant [13 x i8] c"Request Seed\00", align 1
@.str.600 = private unnamed_addr constant [9 x i8] c"Send Key\00", align 1
@.str.601 = private unnamed_addr constant [22 x i8] c"Request Seed ISO26021\00", align 1
@.str.602 = private unnamed_addr constant [18 x i8] c"Send Key ISO26021\00", align 1
@.str.603 = private unnamed_addr constant [8 x i8] c"Unknown\00", align 1

; Function Attrs: nounwind null_pointer_is_valid sspstrong uwtable
define internal ptr @uds_sa_subfunction_to_string(i8 noundef zeroext %0) #3 {
  %2 = alloca ptr, align 8
  %3 = alloca i8, align 1
  store i8 %0, ptr %3, align 1
  %4 = load i8, ptr %3, align 1
  %5 = call i32 @uds_sa_subfunction_to_type(i8 noundef zeroext %4)
  switch i32 %5, label %12 [
    i32 0, label %6
    i32 254, label %7
    i32 1, label %8
    i32 2, label %9
    i32 3, label %10
    i32 4, label %11
  ]

6:                                                ; preds = %1
  store ptr @.str.426, ptr %2, align 8
  br label %13

7:                                                ; preds = %1
  store ptr @.str.598, ptr %2, align 8
  br label %13

8:                                                ; preds = %1
  store ptr @.str.599, ptr %2, align 8
  br label %13

9:                                                ; preds = %1
  store ptr @.str.600, ptr %2, align 8
  br label %13

10:                                               ; preds = %1
  store ptr @.str.601, ptr %2, align 8
  br label %13

11:                                               ; preds = %1
  store ptr @.str.602, ptr %2, align 8
  br label %13

12:                                               ; preds = %1
  store ptr @.str.603, ptr %2, align 8
  br label %13

13:                                               ; preds = %12, %11, %10, %9, %8, %7, %6
  %14 = load ptr, ptr %2, align 8
  ret ptr %14
}

; Function Attrs: nounwind null_pointer_is_valid sspstrong uwtable
define internal i32 @uds_sa_subfunction_to_type(i8 noundef zeroext %0) #3 {
  %2 = alloca i32, align 4
  %3 = alloca i8, align 1
  store i8 %0, ptr %3, align 1
  %4 = load i8, ptr %3, align 1
  %5 = zext i8 %4 to i32
  %6 = and i32 %5, 127
  %7 = trunc i32 %6 to i8
  store i8 %7, ptr %3, align 1
  %8 = load i8, ptr %3, align 1
  %9 = zext i8 %8 to i32
  %10 = icmp eq i32 %9, 0
  br i1 %10, label %23, label %11

11:                                               ; preds = %1
  %12 = load i8, ptr %3, align 1
  %13 = zext i8 %12 to i32
  %14 = icmp sle i32 67, %13
  br i1 %14, label %15, label %19

15:                                               ; preds = %11
  %16 = load i8, ptr %3, align 1
  %17 = zext i8 %16 to i32
  %18 = icmp sle i32 %17, 94
  br i1 %18, label %23, label %19

19:                                               ; preds = %15, %11
  %20 = load i8, ptr %3, align 1
  %21 = zext i8 %20 to i32
  %22 = icmp eq i32 %21, 127
  br i1 %22, label %23, label %24

23:                                               ; preds = %19, %15, %1
  store i32 0, ptr %2, align 4
  br label %56

24:                                               ; preds = %19
  %25 = load i8, ptr %3, align 1
  %26 = zext i8 %25 to i32
  %27 = icmp eq i32 %26, 95
  br i1 %27, label %28, label %29

28:                                               ; preds = %24
  store i32 3, ptr %2, align 4
  br label %56

29:                                               ; preds = %24
  %30 = load i8, ptr %3, align 1
  %31 = zext i8 %30 to i32
  %32 = icmp eq i32 %31, 96
  br i1 %32, label %33, label %34

33:                                               ; preds = %29
  store i32 4, ptr %2, align 4
  br label %56

34:                                               ; preds = %29
  %35 = load i8, ptr %3, align 1
  %36 = zext i8 %35 to i32
  %37 = icmp sle i32 97, %36
  br i1 %37, label %38, label %43

38:                                               ; preds = %34
  %39 = load i8, ptr %3, align 1
  %40 = zext i8 %39 to i32
  %41 = icmp sle i32 %40, 126
  br i1 %41, label %42, label %43

42:                                               ; preds = %38
  store i32 254, ptr %2, align 4
  br label %56

43:                                               ; preds = %38, %34
  %44 = load i8, ptr %3, align 1
  %45 = zext i8 %44 to i32
  %46 = and i32 %45, 1
  %47 = icmp eq i32 %46, 1
  br i1 %47, label %48, label %49

48:                                               ; preds = %43
  store i32 1, ptr %2, align 4
  br label %56

49:                                               ; preds = %43
  %50 = load i8, ptr %3, align 1
  %51 = zext i8 %50 to i32
  %52 = and i32 %51, 1
  %53 = icmp eq i32 %52, 0
  br i1 %53, label %54, label %55

54:                                               ; preds = %49
  store i32 2, ptr %2, align 4
  br label %56

55:                                               ; preds = %49
  store i32 255, ptr %2, align 4
  br label %56

56:                                               ; preds = %55, %54, %48, %42, %33, %28, %23
  %57 = load i32, ptr %2, align 4
  ret i32 %57
}

; Function Attrs: null_pointer_is_valid sspstrong uwtable
define internal void @uds_sa_subfunction_format(ptr noundef %0, i32 noundef %1) #0 {
  %3 = alloca ptr, align 8
  %4 = alloca i32, align 4
  store ptr %0, ptr %3, align 8
  store i32 %1, ptr %4, align 4
  %5 = load i32, ptr %4, align 4
  %6 = trunc i32 %5 to i8
  %7 = call i32 @uds_sa_subfunction_to_type(i8 noundef zeroext %6)
  %8 = icmp eq i32 %7, 255
  br i1 %8, label %9, label %15

9:                                                ; preds = %2
  %10 = load ptr, ptr %3, align 8
  %11 = load ptr, ptr %3, align 8
  %12 = call i64 @llvm.objectsize.i64.p0(ptr %11, i1 false, i1 true, i1 true)
  %13 = load i32, ptr %4, align 4
  %14 = call i32 (ptr, i64, i32, i64, ptr, ...) @__snprintf_chk(ptr noundef %10, i64 noundef 240, i32 noundef 2, i64 noundef %12, ptr noundef @.str.596, i32 noundef %13)
  br label %24

15:                                               ; preds = %2
  %16 = load ptr, ptr %3, align 8
  %17 = load ptr, ptr %3, align 8
  %18 = call i64 @llvm.objectsize.i64.p0(ptr %17, i1 false, i1 true, i1 true)
  %19 = load i32, ptr %4, align 4
  %20 = trunc i32 %19 to i8
  %21 = call ptr @uds_sa_subfunction_to_string(i8 noundef zeroext %20)
  %22 = load i32, ptr %4, align 4
  %23 = call i32 (ptr, i64, i32, i64, ptr, ...) @__snprintf_chk(ptr noundef %16, i64 noundef 240, i32 noundef 2, i64 noundef %18, ptr noundef @.str.597, ptr noundef %21, i32 noundef %22)
  br label %24

24:                                               ; preds = %15, %9
  ret void
}