; Function Attrs: nofree null_pointer_is_valid sspstrong uwtable
define internal void @uds_sa_subfunction_format(ptr noundef %0, i32 noundef %1) #2 {
  %3 = trunc i32 %1 to i8
  %4 = and i8 %3, 127
  %5 = icmp eq i8 %4, 0
  br i1 %5, label %uds_sa_subfunction_to_string.exit, label %6

6:                                                ; preds = %2
  %7 = add nsw i8 %4, -67
  %or.cond.i.i = icmp ult i8 %7, 28
  %8 = icmp eq i8 %4, 127
  %or.cond5.i.i = or i1 %8, %or.cond.i.i
  br i1 %or.cond5.i.i, label %uds_sa_subfunction_to_string.exit, label %9

9:                                                ; preds = %6
  switch i8 %4, label %10 [
    i8 95, label %uds_sa_subfunction_to_string.exit
    i8 96, label %uds_sa_subfunction_to_type.exit.thread9.i
  ]

10:                                               ; preds = %9
  %11 = icmp samesign ugt i8 %4, 96
  br i1 %11, label %uds_sa_subfunction_to_string.exit, label %uds_sa_subfunction_to_type.exit.i

uds_sa_subfunction_to_type.exit.i:                ; preds = %10
  %12 = and i8 %3, 1
  %switch.i = icmp eq i8 %12, 0
  %.str.600..str.599.i = select i1 %switch.i, ptr @.str.600, ptr @.str.599
  br label %uds_sa_subfunction_to_string.exit

uds_sa_subfunction_to_type.exit.thread9.i:        ; preds = %9
  br label %uds_sa_subfunction_to_string.exit

uds_sa_subfunction_to_string.exit:                ; preds = %2, %6, %9, %10, %uds_sa_subfunction_to_type.exit.i, %uds_sa_subfunction_to_type.exit.thread9.i
  %.0.i7 = phi ptr [ @.str.602, %uds_sa_subfunction_to_type.exit.thread9.i ], [ @.str.426, %6 ], [ %.str.600..str.599.i, %uds_sa_subfunction_to_type.exit.i ], [ @.str.598, %10 ], [ @.str.601, %9 ], [ @.str.426, %2 ]
  %13 = tail call i32 (ptr, i64, i32, i64, ptr, ...) @__snprintf_chk(ptr noundef %0, i64 noundef 240, i32 noundef 2, i64 noundef -1, ptr noundef nonnull @.str.597, ptr noundef nonnull %.0.i7, i32 noundef %1)
  ret void
}